target datalayout = "e-m:e-p270:32:32-p271:32:32-p272:64:64-i64:64-i128:128-f80:128-n8:16:32:64-S128"
target triple = "x86_64-pc-linux-gnu"

%struct.psa_key_attributes_s = type { i16, i16, i32, %struct.psa_key_policy_s, i32 }
%struct.psa_key_policy_s = type { i32, i32, i32 }
%struct.psa_hash_operation_s = type { i32, %union.psa_driver_hash_context_t }
%union.psa_driver_hash_context_t = type { %struct.mbedtls_psa_hash_operation_t }
%struct.mbedtls_psa_hash_operation_t = type { i32, %union.anon.1 }
%union.anon.1 = type { %struct.mbedtls_sha512_context }
%struct.mbedtls_sha512_context = type { [2 x i64], [8 x i64], [128 x i8], i32 }
%struct.psa_mac_operation_s = type { i32, i8, i8, %union.psa_driver_mac_context_t }
%union.psa_driver_mac_context_t = type { %struct.mbedtls_psa_mac_operation_t }
%struct.mbedtls_psa_mac_operation_t = type { i32, %union.anon.2 }
%union.anon.2 = type { %struct.mbedtls_psa_hmac_operation_t }
%struct.mbedtls_psa_hmac_operation_t = type { i32, %struct.psa_hash_operation_s, [144 x i8] }

; Function Attrs: inlinehint nounwind uwtable
define internal i32 @psa_get_key_lifetime(ptr noundef %0) #6 {
  %2 = alloca ptr, align 8
  store ptr %0, ptr %2, align 8, !tbaa !30
  %3 = load ptr, ptr %2, align 8, !tbaa !30
  %4 = getelementptr inbounds nuw %struct.psa_key_attributes_s, ptr %3, i32 0, i32 2
  %5 = load i32, ptr %4, align 4, !tbaa !57
  ret i32 %5
}

; Function Attrs: inlinehint nounwind uwtable
define internal i32 @psa_driver_wrapper_mac_verify_setup(ptr noundef %0, ptr noundef %1, ptr noundef %2, i64 noundef %3, i32 noundef %4) #6 {
  %6 = alloca i32, align 4
  %7 = alloca ptr, align 8
  %8 = alloca ptr, align 8
  %9 = alloca ptr, align 8
  %10 = alloca i64, align 8
  %11 = alloca i32, align 4
  %12 = alloca i32, align 4
  %13 = alloca i32, align 4
  %14 = alloca i32, align 4
  store ptr %0, ptr %7, align 8, !tbaa !75
  store ptr %1, ptr %8, align 8, !tbaa !30
  store ptr %2, ptr %9, align 8, !tbaa !29
  store i64 %3, ptr %10, align 8, !tbaa !20
  store i32 %4, ptr %11, align 4, !tbaa !3
  call void @llvm.lifetime.start.p0(i64 4, ptr %12) #8
  store i32 -151, ptr %12, align 4, !tbaa !3
  call void @llvm.lifetime.start.p0(i64 4, ptr %13) #8
  %15 = load ptr, ptr %8, align 8, !tbaa !30
  %16 = call i32 @psa_get_key_lifetime(ptr noundef %15)
  %17 = lshr i32 %16, 8
  store i32 %17, ptr %13, align 4, !tbaa !3
  %18 = load i32, ptr %13, align 4, !tbaa !3
  switch i32 %18, label %38 [
    i32 0, label %19
  ]

19:                                               ; preds = %5
  %20 = load ptr, ptr %7, align 8, !tbaa !75
  %21 = getelementptr inbounds nuw %struct.psa_mac_operation_s, ptr %20, i32 0, i32 3
  %22 = load ptr, ptr %8, align 8, !tbaa !30
  %23 = load ptr, ptr %9, align 8, !tbaa !29
  %24 = load i64, ptr %10, align 8, !tbaa !20
  %25 = load i32, ptr %11, align 4, !tbaa !3
  %26 = call i32 @mbedtls_psa_mac_verify_setup(ptr noundef %21, ptr noundef %22, ptr noundef %23, i64 noundef %24, i32 noundef %25)
  store i32 %26, ptr %12, align 4, !tbaa !3
  %27 = load i32, ptr %12, align 4, !tbaa !3
  %28 = icmp eq i32 %27, 0
  br i1 %28, label %29, label %32

29:                                               ; preds = %19
  %30 = load ptr, ptr %7, align 8, !tbaa !75
  %31 = getelementptr inbounds nuw %struct.psa_mac_operation_s, ptr %30, i32 0, i32 0
  store i32 1, ptr %31, align 8, !tbaa !77
  br label %32

32:                                               ; preds = %29, %19
  %33 = load i32, ptr %12, align 4, !tbaa !3
  %34 = icmp ne i32 %33, -134
  br i1 %34, label %35, label %37

35:                                               ; preds = %32
  %36 = load i32, ptr %12, align 4, !tbaa !3
  store i32 %36, ptr %6, align 4
  store i32 1, ptr %14, align 4
  br label %39

37:                                               ; preds = %32
  store i32 -134, ptr %6, align 4
  store i32 1, ptr %14, align 4
  br label %39

38:                                               ; preds = %5
  store i32 -135, ptr %6, align 4
  store i32 1, ptr %14, align 4
  br label %39

39:                                               ; preds = %38, %37, %35
  call void @llvm.lifetime.end.p0(i64 4, ptr %13) #8
  call void @llvm.lifetime.end.p0(i64 4, ptr %12) #8
  %40 = load i32, ptr %6, align 4
  ret i32 %40
}