; Function Attrs: inlinehint nounwind uwtable
define internal fastcc noundef i32 @psa_driver_wrapper_mac_verify_setup(ptr noundef %0, ptr noundef %1, ptr noundef %2, i64 noundef %3, i32 noundef %4) unnamed_addr #13 {
  %6 = getelementptr i8, ptr %1, i64 4
  %.val = load i32, ptr %6, align 4, !tbaa !39
  %cond = icmp ult i32 %.val, 256
  br i1 %cond, label %7, label %11

7:                                                ; preds = %5
  %8 = getelementptr inbounds nuw i8, ptr %0, i64 8
  %9 = tail call i32 @mbedtls_psa_mac_verify_setup(ptr noundef nonnull %8, ptr noundef nonnull %1, ptr noundef %2, i64 noundef %3, i32 noundef %4) #22
  %cond12 = icmp eq i32 %9, 0
  br i1 %cond12, label %10, label %11

10:                                               ; preds = %7
  store i32 1, ptr %0, align 8, !tbaa !55
  br label %11

11:                                               ; preds = %7, %10, %5
  %.0 = phi i32 [ 0, %10 ], [ -135, %5 ], [ %9, %7 ]
  ret i32 %.0
}